target datalayout = "e-m:e-p270:32:32-p271:32:32-p272:64:64-i64:64-i128:128-f80:128-n8:16:32:64-S128"
target triple = "x86_64-pc-linux-gnu"

%class.ZRelocationSetSelectorGroupStats = type { i64, i64, i64, i64, i64, i64 }
%class.ZRelocationSetSelectorGroup = type { ptr, i8, i64, i64, double, i64, %class.GrowableArrayCHeap, %class.GrowableArrayCHeap, i64, [16 x %class.ZRelocationSetSelectorGroupStats] }
%class.GrowableArrayCHeap = type { %class.GrowableArrayWithAllocator }
%class.GrowableArrayWithAllocator = type { %class.GrowableArrayView }
%class.GrowableArrayView = type { %class.GrowableArrayBase, ptr }
%class.GrowableArrayBase = type { i32, i32 }

@_ZN32ZRelocationSetSelectorGroupStatsC1Ev = hidden unnamed_addr alias void (ptr), ptr @_ZN32ZRelocationSetSelectorGroupStatsC2Ev

; Function Attrs: mustprogress nounwind uwtable
define linkonce_odr hidden void @_ZN17GrowableArrayBaseC2Eii(ptr noundef nonnull align 4 dereferenceable(8) %0, i32 noundef %1, i32 noundef %2) unnamed_addr #1 comdat align 2 {
  %4 = alloca ptr, align 8
  %5 = alloca i32, align 4
  %6 = alloca i32, align 4
  store ptr %0, ptr %4, align 8
  store i32 %1, ptr %5, align 4
  store i32 %2, ptr %6, align 4
  %7 = load ptr, ptr %4, align 8
  %8 = getelementptr inbounds %class.GrowableArrayBase, ptr %7, i32 0, i32 0
  %9 = load i32, ptr %6, align 4
  store i32 %9, ptr %8, align 4
  %10 = getelementptr inbounds %class.GrowableArrayBase, ptr %7, i32 0, i32 1
  %11 = load i32, ptr %5, align 4
  store i32 %11, ptr %10, align 4
  ret void
}

; Function Attrs: mustprogress nounwind uwtable
define linkonce_odr hidden void @_ZN17GrowableArrayViewIP5ZPageEC2EPS1_ii(ptr noundef nonnull align 8 dereferenceable(16) %0, ptr noundef %1, i32 noundef %2, i32 noundef %3) unnamed_addr #1 comdat align 2 {
  %5 = alloca ptr, align 8
  %6 = alloca ptr, align 8
  %7 = alloca i32, align 4
  %8 = alloca i32, align 4
  store ptr %0, ptr %5, align 8
  store ptr %1, ptr %6, align 8
  store i32 %2, ptr %7, align 4
  store i32 %3, ptr %8, align 4
  %9 = load ptr, ptr %5, align 8
  %10 = load i32, ptr %7, align 4
  %11 = load i32, ptr %8, align 4
  call void @_ZN17GrowableArrayBaseC2Eii(ptr noundef nonnull align 4 dereferenceable(8) %9, i32 noundef %10, i32 noundef %11)
  %12 = getelementptr inbounds %class.GrowableArrayView, ptr %9, i32 0, i32 1
  %13 = load ptr, ptr %6, align 8
  store ptr %13, ptr %12, align 8
  ret void
}

; Function Attrs: mustprogress nounwind uwtable
define linkonce_odr hidden void @_ZN26GrowableArrayWithAllocatorIP5ZPage18GrowableArrayCHeapIS1_L8MEMFLAGS5EEEC2EPS1_i(ptr noundef nonnull align 8 dereferenceable(16) %0, ptr noundef %1, i32 noundef %2) unnamed_addr #1 comdat align 2 {
  %4 = alloca ptr, align 8
  %5 = alloca ptr, align 8
  %6 = alloca i32, align 4
  %7 = alloca i32, align 4
  store ptr %0, ptr %4, align 8
  store ptr %1, ptr %5, align 8
  store i32 %2, ptr %6, align 4
  %8 = load ptr, ptr %4, align 8
  %9 = load ptr, ptr %5, align 8
  %10 = load i32, ptr %6, align 4
  call void @_ZN17GrowableArrayViewIP5ZPageEC2EPS1_ii(ptr noundef nonnull align 8 dereferenceable(16) %8, ptr noundef %9, i32 noundef %10, i32 noundef 0)
  store i32 0, ptr %7, align 4
  br label %11

11:                                               ; preds = %20, %3
  %12 = load i32, ptr %7, align 4
  %13 = load i32, ptr %6, align 4
  %14 = icmp slt i32 %12, %13
  br i1 %14, label %15, label %23

15:                                               ; preds = %11
  %16 = load ptr, ptr %5, align 8
  %17 = load i32, ptr %7, align 4
  %18 = sext i32 %17 to i64
  %19 = getelementptr inbounds ptr, ptr %16, i64 %18
  store ptr null, ptr %19, align 8
  br label %20

20:                                               ; preds = %15
  %21 = load i32, ptr %7, align 4
  %22 = add nsw i32 %21, 1
  store i32 %22, ptr %7, align 4
  br label %11, !llvm.loop !32

23:                                               ; preds = %11
  ret void
}

; Function Attrs: mustprogress nounwind uwtable
define linkonce_odr hidden noundef ptr @_ZN18GrowableArrayCHeapIP5ZPageL8MEMFLAGS5EE8allocateEiS2_(i32 noundef %0, i8 noundef zeroext %1) #1 comdat align 2 {
  %3 = alloca ptr, align 8
  %4 = alloca i32, align 4
  %5 = alloca i8, align 1
  store i32 %0, ptr %4, align 4
  store i8 %1, ptr %5, align 1
  %6 = load i32, ptr %4, align 4
  %7 = icmp eq i32 %6, 0
  br i1 %7, label %8, label %9

8:                                                ; preds = %2
  store ptr null, ptr %3, align 8
  br label %13

9:                                                ; preds = %2
  %10 = load i32, ptr %4, align 4
  %11 = load i8, ptr %5, align 1
  %12 = call noundef ptr @_ZN27GrowableArrayCHeapAllocator8allocateEii8MEMFLAGS(i32 noundef %10, i32 noundef 8, i8 noundef zeroext %11)
  store ptr %12, ptr %3, align 8
  br label %13

13:                                               ; preds = %9, %8
  %14 = load ptr, ptr %3, align 8
  ret ptr %14
}

; Function Attrs: mustprogress nounwind uwtable
define linkonce_odr hidden void @_ZN18GrowableArrayCHeapIP5ZPageL8MEMFLAGS5EEC2Ei(ptr noundef nonnull align 8 dereferenceable(16) %0, i32 noundef %1) unnamed_addr #1 comdat align 2 {
  %3 = alloca ptr, align 8
  %4 = alloca i32, align 4
  store ptr %0, ptr %3, align 8
  store i32 %1, ptr %4, align 4
  %5 = load ptr, ptr %3, align 8
  %6 = load i32, ptr %4, align 4
  %7 = call noundef ptr @_ZN18GrowableArrayCHeapIP5ZPageL8MEMFLAGS5EE8allocateEiS2_(i32 noundef %6, i8 noundef zeroext 5)
  %8 = load i32, ptr %4, align 4
  call void @_ZN26GrowableArrayWithAllocatorIP5ZPage18GrowableArrayCHeapIS1_L8MEMFLAGS5EEEC2EPS1_i(ptr noundef nonnull align 8 dereferenceable(16) %5, ptr noundef %7, i32 noundef %8)
  ret void
}

; Function Attrs: mustprogress nounwind uwtable
define hidden void @_ZN27ZRelocationSetSelectorGroupC2EPKc9ZPageTypemmd(ptr noundef nonnull align 8 dereferenceable(856) %0, ptr noundef %1, i8 noundef zeroext %2, i64 noundef %3, i64 noundef %4, double noundef %5) unnamed_addr #1 align 2 {
  %7 = alloca ptr, align 8
  %8 = alloca ptr, align 8
  %9 = alloca i8, align 1
  %10 = alloca i64, align 8
  %11 = alloca i64, align 8
  %12 = alloca double, align 8
  store ptr %0, ptr %7, align 8
  store ptr %1, ptr %8, align 8
  store i8 %2, ptr %9, align 1
  store i64 %3, ptr %10, align 8
  store i64 %4, ptr %11, align 8
  store double %5, ptr %12, align 8
  %13 = load ptr, ptr %7, align 8
  %14 = getelementptr inbounds %class.ZRelocationSetSelectorGroup, ptr %13, i32 0, i32 0
  %15 = load ptr, ptr %8, align 8
  store ptr %15, ptr %14, align 8
  %16 = getelementptr inbounds %class.ZRelocationSetSelectorGroup, ptr %13, i32 0, i32 1
  %17 = load i8, ptr %9, align 1
  store i8 %17, ptr %16, align 8
  %18 = getelementptr inbounds %class.ZRelocationSetSelectorGroup, ptr %13, i32 0, i32 2
  %19 = load i64, ptr %10, align 8
  store i64 %19, ptr %18, align 8
  %20 = getelementptr inbounds %class.ZRelocationSetSelectorGroup, ptr %13, i32 0, i32 3
  %21 = load i64, ptr %11, align 8
  store i64 %21, ptr %20, align 8
  %22 = getelementptr inbounds %class.ZRelocationSetSelectorGroup, ptr %13, i32 0, i32 4
  %23 = load double, ptr %12, align 8
  store double %23, ptr %22, align 8
  %24 = getelementptr inbounds %class.ZRelocationSetSelectorGroup, ptr %13, i32 0, i32 5
  %25 = load i64, ptr %10, align 8
  %26 = uitofp i64 %25 to double
  %27 = load double, ptr %12, align 8
  %28 = fdiv double %27, 1.000000e+02
  %29 = fmul double %26, %28
  %30 = fptoui double %29 to i64
  store i64 %30, ptr %24, align 8
  %31 = getelementptr inbounds %class.ZRelocationSetSelectorGroup, ptr %13, i32 0, i32 6
  call void @_ZN18GrowableArrayCHeapIP5ZPageL8MEMFLAGS5EEC2Ei(ptr noundef nonnull align 8 dereferenceable(16) %31, i32 noundef 0)
  %32 = getelementptr inbounds %class.ZRelocationSetSelectorGroup, ptr %13, i32 0, i32 7
  call void @_ZN18GrowableArrayCHeapIP5ZPageL8MEMFLAGS5EEC2Ei(ptr noundef nonnull align 8 dereferenceable(16) %32, i32 noundef 0)
  %33 = getelementptr inbounds %class.ZRelocationSetSelectorGroup, ptr %13, i32 0, i32 8
  store i64 0, ptr %33, align 8
  %34 = getelementptr inbounds %class.ZRelocationSetSelectorGroup, ptr %13, i32 0, i32 9
  %35 = getelementptr inbounds [16 x %class.ZRelocationSetSelectorGroupStats], ptr %34, i32 0, i32 0
  %36 = getelementptr inbounds %class.ZRelocationSetSelectorGroupStats, ptr %35, i64 16
  br label %37

37:                                               ; preds = %37, %6
  %38 = phi ptr [ %35, %6 ], [ %39, %37 ]
  call void @_ZN32ZRelocationSetSelectorGroupStatsC1Ev(ptr noundef nonnull align 8 dereferenceable(48) %38)
  %39 = getelementptr inbounds %class.ZRelocationSetSelectorGroupStats, ptr %38, i64 1
  %40 = icmp eq ptr %39, %36
  br i1 %40, label %41, label %37

41:                                               ; preds = %37
  ret void
}