; Function Attrs: mustprogress nofree norecurse nosync nounwind willreturn memory(argmem: write) uwtable
define hidden void @_ZN27ZRelocationSetSelectorGroupC2EPKc9ZPageTypemmd(ptr nocapture noundef nonnull writeonly align 8 dereferenceable(856) %0, ptr noundef %1, i8 noundef zeroext %2, i64 noundef %3, i64 noundef %4, double noundef %5) unnamed_addr #0 align 2 {
  store ptr %1, ptr %0, align 8
  %7 = getelementptr inbounds i8, ptr %0, i64 8
  store i8 %2, ptr %7, align 8
  %8 = getelementptr inbounds i8, ptr %0, i64 16
  store i64 %3, ptr %8, align 8
  %9 = getelementptr inbounds i8, ptr %0, i64 24
  store i64 %4, ptr %9, align 8
  %10 = getelementptr inbounds i8, ptr %0, i64 32
  store double %5, ptr %10, align 8
  %11 = getelementptr inbounds i8, ptr %0, i64 40
  %12 = uitofp i64 %3 to double
  %13 = fdiv double %5, 1.000000e+02
  %14 = fmul double %13, %12
  %15 = fptoui double %14 to i64
  store i64 %15, ptr %11, align 8
  %16 = getelementptr inbounds i8, ptr %0, i64 48
  tail call void @llvm.memset.p0.i64(ptr noundef nonnull align 8 dereferenceable(808) %16, i8 0, i64 808, i1 false)
  ret void
}